; Function Attrs: nounwind uwtable
define ptr @l_Lean_PrettyPrinter_Delaborator_TopDownAnalyze_withKnowing___rarg(i8 noundef zeroext %0, i8 noundef zeroext %1, ptr noundef %2, ptr noundef %3, ptr noundef %4, ptr noundef %5, ptr noundef %6, ptr noundef %7, ptr noundef %8, ptr noundef %9) local_unnamed_addr #1 {
  %.val = load i32, ptr %3, align 4, !tbaa !8
  %11 = icmp eq i32 %.val, 1
  br i1 %11, label %12, label %15

12:                                               ; preds = %10
  %13 = getelementptr inbounds nuw i8, ptr %3, i64 16
  store i8 %0, ptr %13, align 1, !tbaa !14
  %14 = getelementptr inbounds nuw i8, ptr %3, i64 17
  store i8 %1, ptr %14, align 1, !tbaa !14
  br label %48

15:                                               ; preds = %10
  %16 = getelementptr inbounds nuw i8, ptr %3, i64 8
  %17 = getelementptr inbounds nuw i8, ptr %3, i64 18
  %18 = load i8, ptr %17, align 1, !tbaa !14
  %19 = getelementptr inbounds nuw i8, ptr %3, i64 19
  %20 = load i8, ptr %19, align 1, !tbaa !14
  %21 = load ptr, ptr %16, align 8, !tbaa !11
  %22 = ptrtoint ptr %21 to i64
  %23 = and i64 %22, 1
  %.not = icmp eq i64 %23, 0
  br i1 %.not, label %24, label %lean_inc.exit

24:                                               ; preds = %15
  %.val.i = load i32, ptr %21, align 4, !tbaa !8
  %25 = icmp sgt i32 %.val.i, 0
  br i1 %25, label %26, label %28, !prof !13

26:                                               ; preds = %24
  %27 = add nuw i32 %.val.i, 1
  store i32 %27, ptr %21, align 4, !tbaa !8
  br label %lean_inc.exit

28:                                               ; preds = %24
  %.not.i39 = icmp eq i32 %.val.i, 0
  br i1 %.not.i39, label %lean_inc.exit, label %29

29:                                               ; preds = %28
  tail call void @lean_inc_ref_cold(ptr noundef nonnull %21) #7
  br label %lean_inc.exit

lean_inc.exit:                                    ; preds = %29, %28, %26, %15
  %30 = ptrtoint ptr %3 to i64
  %31 = and i64 %30, 1
  %.not40 = icmp eq i64 %31, 0
  br i1 %.not40, label %32, label %lean_dec.exit

32:                                               ; preds = %lean_inc.exit
  %33 = load i32, ptr %3, align 4, !tbaa !8
  %34 = icmp sgt i32 %33, 1
  br i1 %34, label %35, label %37, !prof !13

35:                                               ; preds = %32
  %36 = add nsw i32 %33, -1
  store i32 %36, ptr %3, align 4, !tbaa !8
  br label %lean_dec.exit

37:                                               ; preds = %32
  %.not.i = icmp eq i32 %33, 0
  br i1 %.not.i, label %lean_dec.exit, label %38

38:                                               ; preds = %37
  tail call void @lean_dec_ref_cold(ptr noundef nonnull %3) #7
  br label %lean_dec.exit

lean_dec.exit:                                    ; preds = %38, %37, %35, %lean_inc.exit
  tail call void @lean_inc_heartbeat() #7
  %39 = tail call noalias ptr @mi_malloc_small(i64 noundef 24) #7
  %40 = icmp eq ptr %39, null
  br i1 %40, label %41, label %lean_alloc_ctor.exit

41:                                               ; preds = %lean_dec.exit
  tail call void @lean_internal_panic_out_of_memory() #8
  unreachable

lean_alloc_ctor.exit:                             ; preds = %lean_dec.exit
  %42 = getelementptr inbounds nuw i8, ptr %39, i64 4
  %43 = getelementptr inbounds nuw i8, ptr %39, i64 16
  store i64 0, ptr %43, align 8, !tbaa !4
  store i32 1, ptr %39, align 4, !tbaa !8
  store i32 65560, ptr %42, align 4
  %44 = getelementptr inbounds nuw i8, ptr %39, i64 8
  store ptr %21, ptr %44, align 8, !tbaa !11
  store i8 %0, ptr %43, align 1, !tbaa !14
  %45 = getelementptr inbounds nuw i8, ptr %39, i64 17
  store i8 %1, ptr %45, align 1, !tbaa !14
  %46 = getelementptr inbounds nuw i8, ptr %39, i64 18
  store i8 %18, ptr %46, align 1, !tbaa !14
  %47 = getelementptr inbounds nuw i8, ptr %39, i64 19
  store i8 %20, ptr %47, align 1, !tbaa !14
  br label %48

48:                                               ; preds = %lean_alloc_ctor.exit, %12
  %.sink = phi ptr [ %39, %lean_alloc_ctor.exit ], [ %3, %12 ]
  %49 = tail call ptr @lean_apply_7(ptr noundef %2, ptr noundef nonnull %.sink, ptr noundef %4, ptr noundef %5, ptr noundef %6, ptr noundef %7, ptr noundef %8, ptr noundef %9) #7
  ret ptr %49
}